; Function Attrs: nounwind uwtable
define ptr @Abc_NtkFindNet(ptr noundef readonly captures(none) %0, ptr noundef %1) local_unnamed_addr #0 {
  %3 = getelementptr inbounds nuw i8, ptr %0, i64 24
  %4 = load ptr, ptr %3, align 8, !tbaa !45
  %5 = tail call i32 @Nm_ManFindIdByName(ptr noundef %4, ptr noundef %1, i32 noundef 6) #10
  %6 = icmp eq i32 %5, -1
  br i1 %6, label %13, label %7

7:                                                ; preds = %2
  %8 = getelementptr i8, ptr %0, i64 32
  %.val = load ptr, ptr %8, align 8, !tbaa !31
  %9 = getelementptr i8, ptr %.val, i64 8
  %.val.val = load ptr, ptr %9, align 8, !tbaa !35
  %10 = sext i32 %5 to i64
  %11 = getelementptr inbounds ptr, ptr %.val.val, i64 %10
  %12 = load ptr, ptr %11, align 8, !tbaa !36
  br label %13

13:                                               ; preds = %2, %7
  %.0 = phi ptr [ %12, %7 ], [ null, %2 ]
  ret ptr %.0
}